target datalayout = "e-m:e-p270:32:32-p271:32:32-p272:64:64-i64:64-i128:128-f80:128-n8:16:32:64-S128"
target triple = "x86_64-pc-linux-gnu"

%struct.pmix_mca_base_framework_t = type { ptr, ptr, ptr, ptr, ptr, ptr, i32, i32, ptr, ptr, i32, i32, %struct.pmix_list_t, %struct.pmix_list_t }
%struct.pmix_list_t = type { %struct.pmix_object_t, %struct.pmix_list_item_t, i64 }
%struct.pmix_object_t = type { %union.pthread_mutex_t, ptr, i32, %struct.pmix_tma }
%union.pthread_mutex_t = type { %struct.__pthread_mutex_s }
%struct.__pthread_mutex_s = type { i32, i32, i32, i32, i32, i16, i16, %struct.__pthread_internal_list }
%struct.__pthread_internal_list = type { ptr, ptr }
%struct.pmix_tma = type { ptr, ptr, ptr, ptr, ptr, ptr, ptr, ptr }
%struct.pmix_list_item_t = type { %struct.pmix_object_t, ptr, ptr, i32 }
%struct.pmix_output_desc_t = type { i8, i8, i32, i8, i32, ptr, ptr, i32, ptr, i32, i8, i8, i8, i8, ptr, i32, i32 }
%struct.pmix_buffer_t = type { %struct.pmix_object_t, i8, ptr, ptr, ptr, i64, i64 }

@pmix_bfrops_base_framework = external global %struct.pmix_mca_base_framework_t, align 8
@pmix_output_info = external global [0 x %struct.pmix_output_desc_t], align 8
@.str.5 = private unnamed_addr constant [34 x i8] c"pmix_bfrops_base_pack_int16 * %d\0A\00", align 1

; Function Attrs: inlinehint nounwind uwtable
define internal zeroext i16 @__bswap_16(i16 noundef zeroext %0) #3 {
  %2 = alloca i16, align 2
  store i16 %0, ptr %2, align 2, !tbaa !11
  %3 = load i16, ptr %2, align 2, !tbaa !11
  %4 = zext i16 %3 to i32
  %5 = ashr i32 %4, 8
  %6 = and i32 %5, 255
  %7 = load i16, ptr %2, align 2, !tbaa !11
  %8 = zext i16 %7 to i32
  %9 = and i32 %8, 255
  %10 = shl i32 %9, 8
  %11 = or i32 %6, %10
  %12 = trunc i32 %11 to i16
  ret i16 %12
}

; Function Attrs: nounwind uwtable
define i32 @pmix_bfrops_base_pack_int16(ptr noundef %0, ptr noundef %1, ptr noundef %2, i32 noundef %3, i16 noundef zeroext %4) #0 {
  %6 = alloca i32, align 4
  %7 = alloca ptr, align 8
  %8 = alloca ptr, align 8
  %9 = alloca ptr, align 8
  %10 = alloca i32, align 4
  %11 = alloca i16, align 2
  %12 = alloca i32, align 4
  %13 = alloca i16, align 2
  %14 = alloca ptr, align 8
  %15 = alloca ptr, align 8
  %16 = alloca i32, align 4
  store ptr %0, ptr %7, align 8, !tbaa !3
  store ptr %1, ptr %8, align 8, !tbaa !8
  store ptr %2, ptr %9, align 8, !tbaa !8
  store i32 %3, ptr %10, align 4, !tbaa !9
  store i16 %4, ptr %11, align 2, !tbaa !11
  call void @llvm.lifetime.start.p0(i64 4, ptr %12) #9
  call void @llvm.lifetime.start.p0(i64 2, ptr %13) #9
  call void @llvm.lifetime.start.p0(i64 8, ptr %14) #9
  %17 = load ptr, ptr %9, align 8, !tbaa !8
  store ptr %17, ptr %14, align 8, !tbaa !46
  call void @llvm.lifetime.start.p0(i64 8, ptr %15) #9
  %18 = load i32, ptr getelementptr inbounds nuw (%struct.pmix_mca_base_framework_t, ptr @pmix_bfrops_base_framework, i32 0, i32 11), align 4, !tbaa !26
  %19 = icmp sge i32 %18, 0
  br i1 %19, label %20, label %33

20:                                               ; preds = %5
  %21 = load i32, ptr getelementptr inbounds nuw (%struct.pmix_mca_base_framework_t, ptr @pmix_bfrops_base_framework, i32 0, i32 11), align 4, !tbaa !26
  %22 = icmp slt i32 %21, 64
  br i1 %22, label %23, label %33

23:                                               ; preds = %20
  %24 = load i32, ptr getelementptr inbounds nuw (%struct.pmix_mca_base_framework_t, ptr @pmix_bfrops_base_framework, i32 0, i32 11), align 4, !tbaa !26
  %25 = sext i32 %24 to i64
  %26 = getelementptr inbounds [0 x %struct.pmix_output_desc_t], ptr @pmix_output_info, i64 0, i64 %25
  %27 = getelementptr inbounds nuw %struct.pmix_output_desc_t, ptr %26, i32 0, i32 2
  %28 = load i32, ptr %27, align 4, !tbaa !32
  %29 = icmp sge i32 %28, 20
  br i1 %29, label %30, label %33

30:                                               ; preds = %23
  %31 = load i32, ptr getelementptr inbounds nuw (%struct.pmix_mca_base_framework_t, ptr @pmix_bfrops_base_framework, i32 0, i32 11), align 4, !tbaa !26
  %32 = load i32, ptr %10, align 4, !tbaa !9
  call void (i32, ptr, ...) @pmix_output(i32 noundef %31, ptr noundef @.str.5, i32 noundef %32)
  br label %33

33:                                               ; preds = %30, %23, %20, %5
  %34 = load ptr, ptr %8, align 8, !tbaa !8
  %35 = load i32, ptr %10, align 4, !tbaa !9
  %36 = sext i32 %35 to i64
  %37 = mul i64 %36, 2
  %38 = call ptr @pmix_bfrop_buffer_extend(ptr noundef %34, i64 noundef %37)
  store ptr %38, ptr %15, align 8, !tbaa !37
  %39 = icmp eq ptr null, %38
  br i1 %39, label %40, label %41

40:                                               ; preds = %33
  store i32 -29, ptr %6, align 4
  store i32 1, ptr %16, align 4
  br label %74

41:                                               ; preds = %33
  store i32 0, ptr %12, align 4, !tbaa !9
  br label %42

42:                                               ; preds = %56, %41
  %43 = load i32, ptr %12, align 4, !tbaa !9
  %44 = load i32, ptr %10, align 4, !tbaa !9
  %45 = icmp slt i32 %43, %44
  br i1 %45, label %46, label %59

46:                                               ; preds = %42
  %47 = load ptr, ptr %14, align 8, !tbaa !46
  %48 = load i32, ptr %12, align 4, !tbaa !9
  %49 = sext i32 %48 to i64
  %50 = getelementptr inbounds i16, ptr %47, i64 %49
  %51 = load i16, ptr %50, align 2, !tbaa !11
  %52 = call zeroext i16 @__bswap_16(i16 noundef zeroext %51)
  store i16 %52, ptr %13, align 2, !tbaa !11
  %53 = load ptr, ptr %15, align 8, !tbaa !37
  call void @llvm.memcpy.p0.p0.i64(ptr align 1 %53, ptr align 2 %13, i64 2, i1 false)
  %54 = load ptr, ptr %15, align 8, !tbaa !37
  %55 = getelementptr inbounds nuw i8, ptr %54, i64 2
  store ptr %55, ptr %15, align 8, !tbaa !37
  br label %56

56:                                               ; preds = %46
  %57 = load i32, ptr %12, align 4, !tbaa !9
  %58 = add nsw i32 %57, 1
  store i32 %58, ptr %12, align 4, !tbaa !9
  br label %42, !llvm.loop !48

59:                                               ; preds = %42
  %60 = load i32, ptr %10, align 4, !tbaa !9
  %61 = sext i32 %60 to i64
  %62 = mul i64 %61, 2
  %63 = load ptr, ptr %8, align 8, !tbaa !8
  %64 = getelementptr inbounds nuw %struct.pmix_buffer_t, ptr %63, i32 0, i32 3
  %65 = load ptr, ptr %64, align 8, !tbaa !44
  %66 = getelementptr inbounds nuw i8, ptr %65, i64 %62
  store ptr %66, ptr %64, align 8, !tbaa !44
  %67 = load i32, ptr %10, align 4, !tbaa !9
  %68 = sext i32 %67 to i64
  %69 = mul i64 %68, 2
  %70 = load ptr, ptr %8, align 8, !tbaa !8
  %71 = getelementptr inbounds nuw %struct.pmix_buffer_t, ptr %70, i32 0, i32 6
  %72 = load i64, ptr %71, align 8, !tbaa !45
  %73 = add i64 %72, %69
  store i64 %73, ptr %71, align 8, !tbaa !45
  store i32 0, ptr %6, align 4
  store i32 1, ptr %16, align 4
  br label %74

74:                                               ; preds = %59, %40
  call void @llvm.lifetime.end.p0(i64 8, ptr %15) #9
  call void @llvm.lifetime.end.p0(i64 8, ptr %14) #9
  call void @llvm.lifetime.end.p0(i64 2, ptr %13) #9
  call void @llvm.lifetime.end.p0(i64 4, ptr %12) #9
  %75 = load i32, ptr %6, align 4
  ret i32 %75
}