; Function Attrs: nounwind uwtable
define range(i32 -29, 1) i32 @pmix_bfrops_base_pack_int16(ptr noundef readnone captures(none) %0, ptr noundef %1, ptr noundef readonly captures(none) %2, i32 noundef %3, i16 noundef zeroext %4) local_unnamed_addr #0 {
  %6 = load i32, ptr getelementptr inbounds nuw (i8, ptr @pmix_bfrops_base_framework, i64 76), align 4, !tbaa !24
  %or.cond = icmp ult i32 %6, 64
  br i1 %or.cond, label %7, label %13

7:                                                ; preds = %5
  %8 = zext nneg i32 %6 to i64
  %9 = getelementptr inbounds nuw [0 x %struct.pmix_output_desc_t], ptr @pmix_output_info, i64 0, i64 %8, i32 2
  %10 = load i32, ptr %9, align 4, !tbaa !30
  %11 = icmp sgt i32 %10, 19
  br i1 %11, label %12, label %13

12:                                               ; preds = %7
  tail call void (i32, ptr, ...) @pmix_output(i32 noundef %6, ptr noundef nonnull @.str.5, i32 noundef %3) #8
  br label %13

13:                                               ; preds = %12, %7, %5
  %14 = sext i32 %3 to i64
  %15 = shl nsw i64 %14, 1
  %16 = tail call ptr @pmix_bfrop_buffer_extend(ptr noundef %1, i64 noundef %15) #8
  %17 = icmp eq ptr %16, null
  br i1 %17, label %28, label %.preheader

.preheader:                                       ; preds = %13
  %18 = icmp sgt i32 %3, 0
  br i1 %18, label %.lr.ph.preheader, label %._crit_edge

.lr.ph.preheader:                                 ; preds = %.preheader
  %wide.trip.count = zext nneg i32 %3 to i64
  br label %.lr.ph

.lr.ph:                                           ; preds = %.lr.ph.preheader, %.lr.ph
  %indvars.iv = phi i64 [ 0, %.lr.ph.preheader ], [ %indvars.iv.next, %.lr.ph ]
  %.021 = phi ptr [ %16, %.lr.ph.preheader ], [ %21, %.lr.ph ]
  %19 = getelementptr inbounds nuw i16, ptr %2, i64 %indvars.iv
  %20 = load i16, ptr %19, align 2, !tbaa !41
  %rev.i = tail call noundef i16 @llvm.bswap.i16(i16 %20)
  store i16 %rev.i, ptr %.021, align 1
  %21 = getelementptr inbounds nuw i8, ptr %.021, i64 2
  %indvars.iv.next = add nuw nsw i64 %indvars.iv, 1
  %exitcond.not = icmp eq i64 %indvars.iv.next, %wide.trip.count
  br i1 %exitcond.not, label %._crit_edge, label %.lr.ph, !llvm.loop !42

._crit_edge:                                      ; preds = %.lr.ph, %.preheader
  %22 = getelementptr inbounds nuw i8, ptr %1, i64 136
  %23 = load ptr, ptr %22, align 8, !tbaa !39
  %24 = getelementptr inbounds nuw i8, ptr %23, i64 %15
  store ptr %24, ptr %22, align 8, !tbaa !39
  %25 = getelementptr inbounds nuw i8, ptr %1, i64 160
  %26 = load i64, ptr %25, align 8, !tbaa !40
  %27 = add i64 %26, %15
  store i64 %27, ptr %25, align 8, !tbaa !40
  br label %28

28:                                               ; preds = %13, %._crit_edge
  %.016 = phi i32 [ 0, %._crit_edge ], [ -29, %13 ]
  ret i32 %.016
}